; Function Attrs: mustprogress uwtable
define hidden void @_ZN2cv10xobjdetect18CvFeatureEvaluator6createEv(ptr dead_on_unwind noalias writable writeonly sret(%"struct.cv::Ptr.4") align 8 captures(none) initializes((0, 16)) %0) local_unnamed_addr #3 align 2 personality ptr @__gxx_personality_v0 {
  %2 = tail call noalias noundef nonnull dereferenceable(360) ptr @_Znwm(i64 noundef 360) #24
  store ptr getelementptr inbounds nuw inrange(-16, 64) (i8, ptr @_ZTVN2cv10xobjdetect18CvFeatureEvaluatorE, i64 16), ptr %2, align 8, !tbaa !21
  %3 = getelementptr inbounds nuw i8, ptr %2, i64 20
  store i32 0, ptr %3, align 4, !tbaa !82
  %4 = getelementptr inbounds nuw i8, ptr %2, i64 24
  store i32 0, ptr %4, align 4, !tbaa !83
  %5 = getelementptr inbounds nuw i8, ptr %2, i64 40
  tail call void @_ZN2cv3MatC1Ev(ptr noundef nonnull align 8 dereferenceable(96) %5) #21
  store ptr getelementptr inbounds nuw inrange(-16, 64) (i8, ptr @_ZTVN2cv10xobjdetect14CvLBPEvaluatorE, i64 16), ptr %2, align 8, !tbaa !21
  %6 = getelementptr inbounds nuw i8, ptr %2, i64 136
  tail call void @llvm.memset.p0.i64(ptr noundef nonnull align 8 dereferenceable(24) %6, i8 0, i64 24, i1 false)
  %7 = getelementptr inbounds nuw i8, ptr %2, i64 160
  tail call void @_ZN2cv3MatC1Ev(ptr noundef nonnull align 8 dereferenceable(96) %7) #21
  %8 = getelementptr inbounds nuw i8, ptr %2, i64 256
  tail call void @_ZN2cv3MatC1Ev(ptr noundef nonnull align 8 dereferenceable(96) %8) #21
  store ptr %2, ptr %0, align 8, !tbaa !84
  %9 = getelementptr inbounds nuw i8, ptr %0, i64 8
  store ptr null, ptr %9, align 8, !tbaa !66
  %10 = invoke noalias noundef nonnull dereferenceable(24) ptr @_Znwm(i64 noundef 24) #24
          to label %_ZN2cv3PtrINS_10xobjdetect18CvFeatureEvaluatorEEC2INS1_14CvLBPEvaluatorEEEPT_.exit unwind label %11

11:                                               ; preds = %1
  %12 = landingpad { ptr, i32 }
          catch ptr null
  %13 = extractvalue { ptr, i32 } %12, 0
  %14 = tail call ptr @__cxa_begin_catch(ptr %13) #21
  %15 = load ptr, ptr %2, align 8, !tbaa !21
  %16 = getelementptr inbounds nuw i8, ptr %15, i64 8
  %17 = load ptr, ptr %16, align 8
  tail call void %17(ptr noundef nonnull align 8 dereferenceable(356) %2) #21
  invoke void @__cxa_rethrow() #22
          to label %24 unwind label %18

18:                                               ; preds = %11
  %19 = landingpad { ptr, i32 }
          cleanup
  invoke void @__cxa_end_catch()
          to label %20 unwind label %21

20:                                               ; preds = %18
  resume { ptr, i32 } %19

21:                                               ; preds = %18
  %22 = landingpad { ptr, i32 }
          catch ptr null
  %23 = extractvalue { ptr, i32 } %22, 0
  tail call void @__clang_call_terminate(ptr %23) #25
  unreachable

24:                                               ; preds = %11
  unreachable

_ZN2cv3PtrINS_10xobjdetect18CvFeatureEvaluatorEEC2INS1_14CvLBPEvaluatorEEEPT_.exit: ; preds = %1
  %25 = getelementptr inbounds nuw i8, ptr %10, i64 8
  store i32 1, ptr %25, align 8, !tbaa !67
  %26 = getelementptr inbounds nuw i8, ptr %10, i64 12
  store i32 1, ptr %26, align 4, !tbaa !69
  store ptr getelementptr inbounds nuw inrange(-16, 40) (i8, ptr @_ZTVSt15_Sp_counted_ptrIPN2cv10xobjdetect14CvLBPEvaluatorELN9__gnu_cxx12_Lock_policyE2EE, i64 16), ptr %10, align 8, !tbaa !21
  %27 = getelementptr inbounds nuw i8, ptr %10, i64 16
  store ptr %2, ptr %27, align 8, !tbaa !87
  store ptr %10, ptr %9, align 8, !tbaa !66
  ret void
}